; ModuleID = '55/1349.cpp'
source_filename = "55/1349.cpp"
target datalayout = "e-m:e-p270:32:32-p271:32:32-p272:64:64-i64:64-f80:128-n8:16:32:64-S128"
target triple = "x86_64-pc-linux-gnu"

%"class.std::ios_base::Init" = type { i8 }
%"class.std::basic_istream" = type { i32 (...)**, i64, %"class.std::basic_ios" }
%"class.std::basic_ios" = type { %"class.std::ios_base", %"class.std::basic_ostream"*, i8, i8, %"class.std::basic_streambuf"*, %"class.std::ctype"*, %"class.std::num_put"*, %"class.std::num_get"* }
%"class.std::ios_base" = type { i32 (...)**, i64, i64, i32, i32, i32, %"struct.std::ios_base::_Callback_list"*, %"struct.std::ios_base::_Words", [8 x %"struct.std::ios_base::_Words"], i32, %"struct.std::ios_base::_Words"*, %"class.std::locale" }
%"struct.std::ios_base::_Callback_list" = type { %"struct.std::ios_base::_Callback_list"*, void (i32, %"class.std::ios_base"*, i32)*, i32, i32 }
%"struct.std::ios_base::_Words" = type { i8*, i64 }
%"class.std::locale" = type { %"class.std::locale::_Impl"* }
%"class.std::locale::_Impl" = type { i32, %"class.std::locale::facet"**, i64, %"class.std::locale::facet"**, i8** }
%"class.std::locale::facet" = type <{ i32 (...)**, i32, [4 x i8] }>
%"class.std::basic_ostream" = type { i32 (...)**, %"class.std::basic_ios" }
%"class.std::basic_streambuf" = type { i32 (...)**, i8*, i8*, i8*, i8*, i8*, i8*, %"class.std::locale" }
%"class.std::ctype" = type <{ %"class.std::locale::facet.base", [4 x i8], %struct.__locale_struct*, i8, [7 x i8], i32*, i32*, i16*, i8, [256 x i8], [256 x i8], i8, [6 x i8] }>
%"class.std::locale::facet.base" = type <{ i32 (...)**, i32 }>
%struct.__locale_struct = type { [13 x %struct.__locale_data*], i16*, i32*, i32*, [13 x i8*] }
%struct.__locale_data = type opaque
%"class.std::num_put" = type { %"class.std::locale::facet.base", [4 x i8] }
%"class.std::num_get" = type { %"class.std::locale::facet.base", [4 x i8] }

@_ZStL8__ioinit = internal global %"class.std::ios_base::Init" zeroinitializer, align 1
@__dso_handle = external hidden global i8
@_ZSt3cin = external dso_local global %"class.std::basic_istream", align 8
@_ZSt4cout = external dso_local global %"class.std::basic_ostream", align 8
@llvm.global_ctors = appending global [1 x { i32, void ()*, i8* }] [{ i32, void ()*, i8* } { i32 65535, void ()* @_GLOBAL__sub_I_1349.cpp, i8* null }]

; Function Attrs: noinline uwtable
define internal void @__cxx_global_var_init() #0 section ".text.startup" {
  call void @_ZNSt8ios_base4InitC1Ev(%"class.std::ios_base::Init"* @_ZStL8__ioinit)
  %1 = call i32 @__cxa_atexit(void (i8*)* bitcast (void (%"class.std::ios_base::Init"*)* @_ZNSt8ios_base4InitD1Ev to void (i8*)*), i8* getelementptr inbounds (%"class.std::ios_base::Init", %"class.std::ios_base::Init"* @_ZStL8__ioinit, i32 0, i32 0), i8* @__dso_handle) #3
  ret void
}

declare dso_local void @_ZNSt8ios_base4InitC1Ev(%"class.std::ios_base::Init"*) unnamed_addr #1

; Function Attrs: nounwind
declare dso_local void @_ZNSt8ios_base4InitD1Ev(%"class.std::ios_base::Init"*) unnamed_addr #2

; Function Attrs: nounwind
declare dso_local i32 @__cxa_atexit(void (i8*)*, i8*, i8*) #3

; Function Attrs: noinline nounwind uwtable
define dso_local i64 @_Z7change1Pci(i8* %0, i32 %1) #4 {
  %3 = alloca i8*, align 8
  %4 = alloca i32, align 4
  %5 = alloca i64, align 8
  %6 = alloca i64, align 8
  %7 = alloca i32, align 4
  store i8* %0, i8** %3, align 8
  store i32 %1, i32* %4, align 4
  store i64 0, i64* %6, align 8
  store i32 0, i32* %7, align 4
  br label %8

8:                                                ; preds = %85, %2
  %9 = load i8*, i8** %3, align 8
  %10 = load i32, i32* %7, align 4
  %11 = sext i32 %10 to i64
  %12 = getelementptr inbounds i8, i8* %9, i64 %11
  %13 = load i8, i8* %12, align 1
  %14 = sext i8 %13 to i32
  %15 = icmp ne i32 %14, 0
  br i1 %15, label %16, label %88

16:                                               ; preds = %8
  %17 = load i8*, i8** %3, align 8
  %18 = load i32, i32* %7, align 4
  %19 = sext i32 %18 to i64
  %20 = getelementptr inbounds i8, i8* %17, i64 %19
  %21 = load i8, i8* %20, align 1
  %22 = sext i8 %21 to i32
  %23 = icmp sge i32 %22, 48
  br i1 %23, label %24, label %41

24:                                               ; preds = %16
  %25 = load i8*, i8** %3, align 8
  %26 = load i32, i32* %7, align 4
  %27 = sext i32 %26 to i64
  %28 = getelementptr inbounds i8, i8* %25, i64 %27
  %29 = load i8, i8* %28, align 1
  %30 = sext i8 %29 to i32
  %31 = icmp sle i32 %30, 57
  br i1 %31, label %32, label %41

32:                                               ; preds = %24
  %33 = load i8*, i8** %3, align 8
  %34 = load i32, i32* %7, align 4
  %35 = sext i32 %34 to i64
  %36 = getelementptr inbounds i8, i8* %33, i64 %35
  %37 = load i8, i8* %36, align 1
  %38 = sext i8 %37 to i32
  %39 = sub nsw i32 %38, 48
  %40 = sext i32 %39 to i64
  store i64 %40, i64* %5, align 8
  br label %78

41:                                               ; preds = %24, %16
  %42 = load i8*, i8** %3, align 8
  %43 = load i32, i32* %7, align 4
  %44 = sext i32 %43 to i64
  %45 = getelementptr inbounds i8, i8* %42, i64 %44
  %46 = load i8, i8* %45, align 1
  %47 = sext i8 %46 to i32
  %48 = icmp sge i32 %47, 65
  br i1 %48, label %49, label %67

49:                                               ; preds = %41
  %50 = load i8*, i8** %3, align 8
  %51 = load i32, i32* %7, align 4
  %52 = sext i32 %51 to i64
  %53 = getelementptr inbounds i8, i8* %50, i64 %52
  %54 = load i8, i8* %53, align 1
  %55 = sext i8 %54 to i32
  %56 = icmp sle i32 %55, 90
  br i1 %56, label %57, label %67

57:                                               ; preds = %49
  %58 = load i8*, i8** %3, align 8
  %59 = load i32, i32* %7, align 4
  %60 = sext i32 %59 to i64
  %61 = getelementptr inbounds i8, i8* %58, i64 %60
  %62 = load i8, i8* %61, align 1
  %63 = sext i8 %62 to i32
  %64 = sub nsw i32 %63, 65
  %65 = add nsw i32 %64, 10
  %66 = sext i32 %65 to i64
  store i64 %66, i64* %5, align 8
  br label %77

67:                                               ; preds = %49, %41
  %68 = load i8*, i8** %3, align 8
  %69 = load i32, i32* %7, align 4
  %70 = sext i32 %69 to i64
  %71 = getelementptr inbounds i8, i8* %68, i64 %70
  %72 = load i8, i8* %71, align 1
  %73 = sext i8 %72 to i32
  %74 = sub nsw i32 %73, 97
  %75 = add nsw i32 %74, 10
  %76 = sext i32 %75 to i64
  store i64 %76, i64* %5, align 8
  br label %77

77:                                               ; preds = %67, %57
  br label %78

78:                                               ; preds = %77, %32
  %79 = load i64, i64* %6, align 8
  %80 = load i32, i32* %4, align 4
  %81 = sext i32 %80 to i64
  %82 = mul nsw i64 %79, %81
  %83 = load i64, i64* %5, align 8
  %84 = add nsw i64 %82, %83
  store i64 %84, i64* %6, align 8
  br label %85

85:                                               ; preds = %78
  %86 = load i32, i32* %7, align 4
  %87 = add nsw i32 %86, 1
  store i32 %87, i32* %7, align 4
  br label %8

88:                                               ; preds = %8
  %89 = load i64, i64* %6, align 8
  ret i64 %89
}

; Function Attrs: noinline norecurse uwtable
define dso_local i32 @main() #5 {
  %1 = alloca i32, align 4
  %2 = alloca i32, align 4
  %3 = alloca i32, align 4
  %4 = alloca i32, align 4
  %5 = alloca i32, align 4
  %6 = alloca i64, align 8
  %7 = alloca i64, align 8
  %8 = alloca [200 x i8], align 16
  %9 = alloca [200 x i8], align 16
  store i32 0, i32* %1, align 4
  store i32 0, i32* %4, align 4
  %10 = call dereferenceable(280) %"class.std::basic_istream"* @_ZNSirsERi(%"class.std::basic_istream"* @_ZSt3cin, i32* dereferenceable(4) %2)
  %11 = getelementptr inbounds [200 x i8], [200 x i8]* %8, i64 0, i64 0
  %12 = call dereferenceable(280) %"class.std::basic_istream"* @_ZStrsIcSt11char_traitsIcEERSt13basic_istreamIT_T0_ES6_PS3_(%"class.std::basic_istream"* dereferenceable(280) @_ZSt3cin, i8* %11)
  %13 = call dereferenceable(280) %"class.std::basic_istream"* @_ZNSirsERi(%"class.std::basic_istream"* @_ZSt3cin, i32* dereferenceable(4) %3)
  %14 = getelementptr inbounds [200 x i8], [200 x i8]* %8, i64 0, i64 0
  %15 = load i32, i32* %2, align 4
  %16 = call i64 @_Z7change1Pci(i8* %14, i32 %15)
  store i64 %16, i64* %6, align 8
  br label %17

17:                                               ; preds = %47, %0
  %18 = load i64, i64* %6, align 8
  %19 = load i32, i32* %3, align 4
  %20 = sext i32 %19 to i64
  %21 = icmp sge i64 %18, %20
  br i1 %21, label %22, label %54

22:                                               ; preds = %17
  %23 = load i64, i64* %6, align 8
  %24 = load i32, i32* %3, align 4
  %25 = sext i32 %24 to i64
  %26 = srem i64 %23, %25
  store i64 %26, i64* %7, align 8
  %27 = load i64, i64* %7, align 8
  %28 = icmp sge i64 %27, 0
  br i1 %28, label %29, label %39

29:                                               ; preds = %22
  %30 = load i64, i64* %7, align 8
  %31 = icmp sle i64 %30, 9
  br i1 %31, label %32, label %39

32:                                               ; preds = %29
  %33 = load i64, i64* %7, align 8
  %34 = add nsw i64 %33, 48
  %35 = trunc i64 %34 to i8
  %36 = load i32, i32* %4, align 4
  %37 = sext i32 %36 to i64
  %38 = getelementptr inbounds [200 x i8], [200 x i8]* %9, i64 0, i64 %37
  store i8 %35, i8* %38, align 1
  br label %47

39:                                               ; preds = %29, %22
  %40 = load i64, i64* %7, align 8
  %41 = sub nsw i64 %40, 10
  %42 = add nsw i64 %41, 65
  %43 = trunc i64 %42 to i8
  %44 = load i32, i32* %4, align 4
  %45 = sext i32 %44 to i64
  %46 = getelementptr inbounds [200 x i8], [200 x i8]* %9, i64 0, i64 %45
  store i8 %43, i8* %46, align 1
  br label %47

47:                                               ; preds = %39, %32
  %48 = load i32, i32* %4, align 4
  %49 = add nsw i32 %48, 1
  store i32 %49, i32* %4, align 4
  %50 = load i64, i64* %6, align 8
  %51 = load i32, i32* %3, align 4
  %52 = sext i32 %51 to i64
  %53 = sdiv i64 %50, %52
  store i64 %53, i64* %6, align 8
  br label %17

54:                                               ; preds = %17
  %55 = load i64, i64* %6, align 8
  %56 = icmp sge i64 %55, 0
  br i1 %56, label %57, label %67

57:                                               ; preds = %54
  %58 = load i64, i64* %6, align 8
  %59 = icmp sle i64 %58, 9
  br i1 %59, label %60, label %67

60:                                               ; preds = %57
  %61 = load i64, i64* %6, align 8
  %62 = add nsw i64 %61, 48
  %63 = trunc i64 %62 to i8
  %64 = load i32, i32* %4, align 4
  %65 = sext i32 %64 to i64
  %66 = getelementptr inbounds [200 x i8], [200 x i8]* %9, i64 0, i64 %65
  store i8 %63, i8* %66, align 1
  br label %75

67:                                               ; preds = %57, %54
  %68 = load i64, i64* %6, align 8
  %69 = sub nsw i64 %68, 10
  %70 = add nsw i64 %69, 65
  %71 = trunc i64 %70 to i8
  %72 = load i32, i32* %4, align 4
  %73 = sext i32 %72 to i64
  %74 = getelementptr inbounds [200 x i8], [200 x i8]* %9, i64 0, i64 %73
  store i8 %71, i8* %74, align 1
  br label %75

75:                                               ; preds = %67, %60
  %76 = load i32, i32* %4, align 4
  store i32 %76, i32* %5, align 4
  br label %77

77:                                               ; preds = %86, %75
  %78 = load i32, i32* %5, align 4
  %79 = icmp sge i32 %78, 0
  br i1 %79, label %80, label %89

80:                                               ; preds = %77
  %81 = load i32, i32* %5, align 4
  %82 = sext i32 %81 to i64
  %83 = getelementptr inbounds [200 x i8], [200 x i8]* %9, i64 0, i64 %82
  %84 = load i8, i8* %83, align 1
  %85 = call dereferenceable(272) %"class.std::basic_ostream"* @_ZStlsISt11char_traitsIcEERSt13basic_ostreamIcT_ES5_c(%"class.std::basic_ostream"* dereferenceable(272) @_ZSt4cout, i8 signext %84)
  br label %86

86:                                               ; preds = %80
  %87 = load i32, i32* %5, align 4
  %88 = add nsw i32 %87, -1
  store i32 %88, i32* %5, align 4
  br label %77

89:                                               ; preds = %77
  ret i32 0
}

declare dso_local dereferenceable(280) %"class.std::basic_istream"* @_ZNSirsERi(%"class.std::basic_istream"*, i32* dereferenceable(4)) #1

declare dso_local dereferenceable(280) %"class.std::basic_istream"* @_ZStrsIcSt11char_traitsIcEERSt13basic_istreamIT_T0_ES6_PS3_(%"class.std::basic_istream"* dereferenceable(280), i8*) #1

declare dso_local dereferenceable(272) %"class.std::basic_ostream"* @_ZStlsISt11char_traitsIcEERSt13basic_ostreamIcT_ES5_c(%"class.std::basic_ostream"* dereferenceable(272), i8 signext) #1

; Function Attrs: noinline uwtable
define internal void @_GLOBAL__sub_I_1349.cpp() #0 section ".text.startup" {
  call void @__cxx_global_var_init()
  ret void
}


!llvm.module.flags = !{!0}
!llvm.ident = !{!1}

!0 = !{i32 1, !"wchar_size", i32 4}
!1 = !{!"clang version 10.0.0-4ubuntu1 "}
